; Function Attrs: mustprogress sspstrong uwtable
define void @_ZN3tbb6detail2r17enqueueERNS0_2d14taskEPNS2_15task_arena_baseE(ptr noundef nonnull align 64 dereferenceable(64) initializes((16, 24), (32, 40)) %0, ptr noundef readonly %1) local_unnamed_addr #1 {
  %3 = load i32, ptr @_ZN3tbb6detail2r18governor6theTLSE, align 4, !tbaa !111
  %4 = tail call noundef ptr @pthread_getspecific(i32 noundef %3) #13
  %.not.i.i = icmp eq ptr %4, null
  br i1 %.not.i.i, label %5, label %_ZN3tbb6detail2r18governor15get_thread_dataEv.exit.i

5:                                                ; preds = %2
  tail call void @_ZN3tbb6detail2r18governor20init_external_threadEv()
  %6 = load i32, ptr @_ZN3tbb6detail2r18governor6theTLSE, align 4, !tbaa !111
  %7 = tail call noundef ptr @pthread_getspecific(i32 noundef %6) #13
  br label %_ZN3tbb6detail2r18governor15get_thread_dataEv.exit.i

_ZN3tbb6detail2r18governor15get_thread_dataEv.exit.i: ; preds = %5, %2
  %.0.i.i = phi ptr [ %7, %5 ], [ %4, %2 ]
  %.not.i = icmp eq ptr %1, null
  br i1 %.not.i, label %11, label %8

8:                                                ; preds = %_ZN3tbb6detail2r18governor15get_thread_dataEv.exit.i
  %9 = getelementptr inbounds nuw i8, ptr %1, i64 16
  %10 = load atomic i64, ptr %9 monotonic, align 8
  %.0.i.i.i = inttoptr i64 %10 to ptr
  br label %_ZN3tbb6detail2r115task_arena_impl7enqueueERNS0_2d14taskEPNS3_18task_group_contextEPNS3_15task_arena_baseE.exit

11:                                               ; preds = %_ZN3tbb6detail2r18governor15get_thread_dataEv.exit.i
  %12 = getelementptr inbounds nuw i8, ptr %.0.i.i, i64 32
  %13 = load ptr, ptr %12, align 8, !tbaa !115
  br label %_ZN3tbb6detail2r115task_arena_impl7enqueueERNS0_2d14taskEPNS3_18task_group_contextEPNS3_15task_arena_baseE.exit

_ZN3tbb6detail2r115task_arena_impl7enqueueERNS0_2d14taskEPNS3_18task_group_contextEPNS3_15task_arena_baseE.exit: ; preds = %8, %11
  %14 = phi ptr [ %.0.i.i.i, %8 ], [ %13, %11 ]
  %15 = getelementptr inbounds nuw i8, ptr %14, i64 288
  %16 = load ptr, ptr %15, align 32, !tbaa !72
  tail call void @_ZN3tbb6detail2r15arena12enqueue_taskERNS0_2d14taskERNS3_18task_group_contextERNS1_11thread_dataE(ptr noundef nonnull align 128 dereferenceable(768) %14, ptr noundef nonnull align 64 dereferenceable(64) %0, ptr noundef nonnull align 8 dereferenceable(128) %16, ptr noundef nonnull align 8 dereferenceable(240) %.0.i.i)
  ret void
}